; Function Attrs: mustprogress nounwind uwtable
define dso_local void @_ZN4node6crypto15RSACipherConfigC2EOS1_(ptr noundef nonnull align 8 dereferenceable(56) %this, ptr noundef nonnull align 8 dereferenceable(56) %other) unnamed_addr #3 align 2 {
entry:
  store ptr getelementptr inbounds ({ [10 x ptr] }, ptr @_ZTVN4node6crypto15RSACipherConfigE, i64 0, i32 0, i64 2), ptr %this, align 8
  %mode = getelementptr inbounds i8, ptr %this, i64 8
  %mode2 = getelementptr inbounds i8, ptr %other, i64 8
  %0 = load i32, ptr %mode2, align 8
  store i32 %0, ptr %mode, align 8
  %label = getelementptr inbounds i8, ptr %this, i64 16
  %label3 = getelementptr inbounds i8, ptr %other, i64 16
  tail call void @_ZN4node6crypto10ByteSourceC1EOS1_(ptr noundef nonnull align 8 dereferenceable(24) %label, ptr noundef nonnull align 8 dereferenceable(24) %label3) #20
  %padding = getelementptr inbounds i8, ptr %this, i64 40
  %padding4 = getelementptr inbounds i8, ptr %other, i64 40
  %1 = load i32, ptr %padding4, align 8
  store i32 %1, ptr %padding, align 8
  %digest = getelementptr inbounds i8, ptr %this, i64 48
  %digest5 = getelementptr inbounds i8, ptr %other, i64 48
  %2 = load ptr, ptr %digest5, align 8
  store ptr %2, ptr %digest, align 8
  ret void
}